target datalayout = "e-m:e-p270:32:32-p271:32:32-p272:64:64-i64:64-i128:128-f80:128-n8:16:32:64-S128"
target triple = "x86_64-pc-linux-gnu"

%struct.Vec_Int_t_ = type { i32, i32, ptr }
%struct.Vec_Ptr_t_ = type { i32, i32, ptr }
%struct.Abc_Ntk_t_ = type { i32, i32, ptr, ptr, ptr, ptr, ptr, ptr, ptr, ptr, ptr, ptr, ptr, [11 x i32], i32, i32, i32, i32, ptr, i32, ptr, ptr, i32, i32, i32, double, i32, %struct.Vec_Int_t_, ptr, ptr, ptr, ptr, ptr, float, i32, ptr, ptr, ptr, ptr, ptr, ptr, ptr, ptr, ptr, ptr, ptr, ptr, ptr, ptr, ptr, ptr, ptr, ptr, ptr, ptr, ptr }
%struct.Aig_Man_t_ = type { ptr, ptr, ptr, ptr, ptr, ptr, ptr, %struct.Aig_Obj_t_, i32, i32, i32, i32, i32, i32, [7 x i32], i32, ptr, i32, ptr, i32, ptr, i32, i32, i32, ptr, i32, i32, i32, i32, i32, ptr, ptr, i32, ptr, ptr, i32, ptr, ptr, i32, i32, i32, ptr, ptr, ptr, ptr, ptr, ptr, ptr, ptr, ptr, ptr, ptr, ptr, ptr, ptr, i32, ptr, ptr, ptr, ptr, i32, i64, i64, i64, ptr, ptr }
%struct.Aig_Obj_t_ = type { %union.anon, ptr, ptr, i64, i32, i32, %union.anon.0 }
%union.anon = type { ptr }
%union.anon.0 = type { ptr }

@.str.98 = private unnamed_addr constant [36 x i8] c"The number of outputs should be 1.\0A\00", align 1

; Function Attrs: nounwind uwtable
define internal i32 @Vec_PtrSize(ptr noundef %0) #0 {
  %2 = alloca ptr, align 8
  store ptr %0, ptr %2, align 8
  %3 = load ptr, ptr %2, align 8
  %4 = getelementptr inbounds %struct.Vec_Ptr_t_, ptr %3, i32 0, i32 1
  %5 = load i32, ptr %4, align 4
  ret i32 %5
}

; Function Attrs: nounwind uwtable
define internal void @Vec_IntFree(ptr noundef %0) #0 {
  %2 = alloca ptr, align 8
  store ptr %0, ptr %2, align 8
  %3 = load ptr, ptr %2, align 8
  %4 = getelementptr inbounds %struct.Vec_Int_t_, ptr %3, i32 0, i32 2
  %5 = load ptr, ptr %4, align 8
  %6 = icmp ne ptr %5, null
  br i1 %6, label %7, label %13

7:                                                ; preds = %1
  %8 = load ptr, ptr %2, align 8
  %9 = getelementptr inbounds %struct.Vec_Int_t_, ptr %8, i32 0, i32 2
  %10 = load ptr, ptr %9, align 8
  call void @free(ptr noundef %10) #10
  %11 = load ptr, ptr %2, align 8
  %12 = getelementptr inbounds %struct.Vec_Int_t_, ptr %11, i32 0, i32 2
  store ptr null, ptr %12, align 8
  br label %14

13:                                               ; preds = %1
  br label %14

14:                                               ; preds = %13, %7
  %15 = load ptr, ptr %2, align 8
  %16 = icmp ne ptr %15, null
  br i1 %16, label %17, label %19

17:                                               ; preds = %14
  %18 = load ptr, ptr %2, align 8
  call void @free(ptr noundef %18) #10
  store ptr null, ptr %2, align 8
  br label %20

19:                                               ; preds = %14
  br label %20

20:                                               ; preds = %19, %17
  ret void
}

; Function Attrs: nounwind uwtable
define internal i32 @Abc_NtkPoNum(ptr noundef %0) #0 {
  %2 = alloca ptr, align 8
  store ptr %0, ptr %2, align 8
  %3 = load ptr, ptr %2, align 8
  %4 = getelementptr inbounds %struct.Abc_Ntk_t_, ptr %3, i32 0, i32 7
  %5 = load ptr, ptr %4, align 8
  %6 = call i32 @Vec_PtrSize(ptr noundef %5)
  ret i32 %6
}

; Function Attrs: nounwind uwtable
define i32 @Abc_NtkDarClau(ptr noundef %0, i32 noundef %1, i32 noundef %2, i32 noundef %3, i32 noundef %4, i32 noundef %5, i32 noundef %6, i32 noundef %7, i32 noundef %8, i32 noundef %9, i32 noundef %10, i32 noundef %11, i32 noundef %12, i32 noundef %13) #0 {
  %15 = alloca i32, align 4
  %16 = alloca ptr, align 8
  %17 = alloca i32, align 4
  %18 = alloca i32, align 4
  %19 = alloca i32, align 4
  %20 = alloca i32, align 4
  %21 = alloca i32, align 4
  %22 = alloca i32, align 4
  %23 = alloca i32, align 4
  %24 = alloca i32, align 4
  %25 = alloca i32, align 4
  %26 = alloca i32, align 4
  %27 = alloca i32, align 4
  %28 = alloca i32, align 4
  %29 = alloca i32, align 4
  %30 = alloca ptr, align 8
  store ptr %0, ptr %16, align 8
  store i32 %1, ptr %17, align 4
  store i32 %2, ptr %18, align 4
  store i32 %3, ptr %19, align 4
  store i32 %4, ptr %20, align 4
  store i32 %5, ptr %21, align 4
  store i32 %6, ptr %22, align 4
  store i32 %7, ptr %23, align 4
  store i32 %8, ptr %24, align 4
  store i32 %9, ptr %25, align 4
  store i32 %10, ptr %26, align 4
  store i32 %11, ptr %27, align 4
  store i32 %12, ptr %28, align 4
  store i32 %13, ptr %29, align 4
  %31 = load i32, ptr %27, align 4
  %32 = icmp ne i32 %31, 0
  br i1 %32, label %33, label %38

33:                                               ; preds = %14
  %34 = load ptr, ptr %16, align 8
  %35 = call i32 @Abc_NtkPoNum(ptr noundef %34)
  %36 = icmp ne i32 %35, 1
  br i1 %36, label %37, label %38

37:                                               ; preds = %33
  call void (i32, ptr, ...) @Abc_Print(i32 noundef 1, ptr noundef @.str.98)
  store i32 1, ptr %15, align 4
  br label %72

38:                                               ; preds = %33, %14
  %39 = load ptr, ptr %16, align 8
  %40 = call ptr @Abc_NtkToDar(ptr noundef %39, i32 noundef 0, i32 noundef 1)
  store ptr %40, ptr %30, align 8
  %41 = load ptr, ptr %30, align 8
  %42 = icmp eq ptr %41, null
  br i1 %42, label %43, label %44

43:                                               ; preds = %38
  store i32 1, ptr %15, align 4
  br label %72

44:                                               ; preds = %38
  %45 = load ptr, ptr %30, align 8
  %46 = getelementptr inbounds %struct.Aig_Man_t_, ptr %45, i32 0, i32 49
  %47 = load ptr, ptr %46, align 8
  %48 = icmp ne ptr %47, null
  br i1 %48, label %49, label %53

49:                                               ; preds = %44
  %50 = load ptr, ptr %30, align 8
  %51 = getelementptr inbounds %struct.Aig_Man_t_, ptr %50, i32 0, i32 49
  %52 = load ptr, ptr %51, align 8
  call void @Vec_IntFree(ptr noundef %52)
  br label %53

53:                                               ; preds = %49, %44
  %54 = load ptr, ptr %30, align 8
  %55 = getelementptr inbounds %struct.Aig_Man_t_, ptr %54, i32 0, i32 49
  store ptr null, ptr %55, align 8
  %56 = load ptr, ptr %30, align 8
  %57 = load i32, ptr %17, align 4
  %58 = load i32, ptr %18, align 4
  %59 = load i32, ptr %19, align 4
  %60 = load i32, ptr %20, align 4
  %61 = load i32, ptr %21, align 4
  %62 = load i32, ptr %22, align 4
  %63 = load i32, ptr %23, align 4
  %64 = load i32, ptr %24, align 4
  %65 = load i32, ptr %25, align 4
  %66 = load i32, ptr %26, align 4
  %67 = load i32, ptr %27, align 4
  %68 = load i32, ptr %28, align 4
  %69 = load i32, ptr %29, align 4
  %70 = call i32 @Fra_Claus(ptr noundef %56, i32 noundef %57, i32 noundef %58, i32 noundef %59, i32 noundef %60, i32 noundef %61, i32 noundef %62, i32 noundef %63, i32 noundef %64, i32 noundef %65, i32 noundef %66, i32 noundef %67, i32 noundef %68, i32 noundef %69)
  %71 = load ptr, ptr %30, align 8
  call void @Aig_ManStop(ptr noundef %71)
  store i32 1, ptr %15, align 4
  br label %72

72:                                               ; preds = %53, %43, %37
  %73 = load i32, ptr %15, align 4
  ret i32 %73
}