; Function Attrs: nounwind uwtable
define noundef i32 @Abc_NtkDarClau(ptr noundef %0, i32 noundef %1, i32 noundef %2, i32 noundef %3, i32 noundef %4, i32 noundef %5, i32 noundef %6, i32 noundef %7, i32 noundef %8, i32 noundef %9, i32 noundef %10, i32 noundef %11, i32 noundef %12, i32 noundef %13) local_unnamed_addr #1 {
  %.not = icmp eq i32 %11, 0
  br i1 %.not, label %19, label %15

15:                                               ; preds = %14
  %16 = getelementptr i8, ptr %0, i64 48
  %.val = load ptr, ptr %16, align 8
  %17 = getelementptr i8, ptr %.val, i64 4
  %.val.val = load i32, ptr %17, align 4
  %.not23 = icmp eq i32 %.val.val, 1
  br i1 %.not23, label %19, label %18

18:                                               ; preds = %15
  tail call void (i32, ptr, ...) @Abc_Print(i32 poison, ptr noundef nonnull @.str.98)
  br label %31

19:                                               ; preds = %15, %14
  %20 = tail call ptr @Abc_NtkToDar(ptr noundef %0, i32 noundef 0, i32 noundef 1)
  %21 = icmp eq ptr %20, null
  br i1 %21, label %31, label %22

22:                                               ; preds = %19
  %23 = getelementptr inbounds nuw i8, ptr %20, i64 392
  %24 = load ptr, ptr %23, align 8
  %.not24 = icmp eq ptr %24, null
  br i1 %.not24, label %29, label %25

25:                                               ; preds = %22
  %26 = getelementptr inbounds nuw i8, ptr %24, i64 8
  %27 = load ptr, ptr %26, align 8
  %.not.i = icmp eq ptr %27, null
  br i1 %.not.i, label %Vec_IntFree.exit, label %28

28:                                               ; preds = %25
  tail call void @free(ptr noundef nonnull %27) #19
  br label %Vec_IntFree.exit

Vec_IntFree.exit:                                 ; preds = %25, %28
  tail call void @free(ptr noundef nonnull %24) #19
  br label %29

29:                                               ; preds = %Vec_IntFree.exit, %22
  store ptr null, ptr %23, align 8
  %30 = tail call i32 @Fra_Claus(ptr noundef nonnull %20, i32 noundef %1, i32 noundef %2, i32 noundef %3, i32 noundef %4, i32 noundef %5, i32 noundef %6, i32 noundef %7, i32 noundef %8, i32 noundef %9, i32 noundef %10, i32 noundef %11, i32 noundef %12, i32 noundef %13) #19
  tail call void @Aig_ManStop(ptr noundef nonnull %20) #19
  br label %31

31:                                               ; preds = %19, %29, %18
  ret i32 1
}